target datalayout = "e-m:e-p270:32:32-p271:32:32-p272:64:64-i64:64-i128:128-f80:128-n8:16:32:64-S128"
target triple = "x86_64-pc-linux-gnu"

%struct.strmap_entry = type { %struct.hashmap_entry, ptr, ptr }
%struct.hashmap_entry = type { ptr, i32 }
%struct.strmap = type { %struct.hashmap, ptr, i8 }
%struct.hashmap = type { ptr, ptr, ptr, i32, i32, i32, i32, i8 }

; Function Attrs: inlinehint nounwind uwtable
define internal ptr @container_of_or_null_offset(ptr noundef %0, i64 noundef %1) #5 {
  %3 = alloca ptr, align 8
  %4 = alloca i64, align 8
  store ptr %0, ptr %3, align 8, !tbaa !4
  store i64 %1, ptr %4, align 8, !tbaa !30
  %5 = load ptr, ptr %3, align 8, !tbaa !4
  %6 = icmp ne ptr %5, null
  br i1 %6, label %7, label %12

7:                                                ; preds = %2
  %8 = load ptr, ptr %3, align 8, !tbaa !4
  %9 = load i64, ptr %4, align 8, !tbaa !30
  %10 = sub i64 0, %9
  %11 = getelementptr inbounds i8, ptr %8, i64 %10
  br label %13

12:                                               ; preds = %2
  br label %13

13:                                               ; preds = %12, %7
  %14 = phi ptr [ %11, %7 ], [ null, %12 ]
  ret ptr %14
}

; Function Attrs: inlinehint nounwind uwtable
define internal void @hashmap_entry_init(ptr noundef %0, i32 noundef %1) #5 {
  %3 = alloca ptr, align 8
  %4 = alloca i32, align 4
  store ptr %0, ptr %3, align 8, !tbaa !8
  store i32 %1, ptr %4, align 4, !tbaa !21
  %5 = load i32, ptr %4, align 4, !tbaa !21
  %6 = load ptr, ptr %3, align 8, !tbaa !8
  %7 = getelementptr inbounds nuw %struct.hashmap_entry, ptr %6, i32 0, i32 1
  store i32 %5, ptr %7, align 8, !tbaa !32
  %8 = load ptr, ptr %3, align 8, !tbaa !8
  %9 = getelementptr inbounds nuw %struct.hashmap_entry, ptr %8, i32 0, i32 0
  store ptr null, ptr %9, align 8, !tbaa !33
  ret void
}

; Function Attrs: nounwind uwtable
define dso_local void @strmap_remove(ptr noundef %0, ptr noundef %1, i32 noundef %2) #0 {
  %4 = alloca ptr, align 8
  %5 = alloca ptr, align 8
  %6 = alloca i32, align 4
  %7 = alloca %struct.strmap_entry, align 8
  %8 = alloca ptr, align 8
  %9 = alloca i32, align 4
  store ptr %0, ptr %4, align 8, !tbaa !17
  store ptr %1, ptr %5, align 8, !tbaa !29
  store i32 %2, ptr %6, align 4, !tbaa !21
  call void @llvm.lifetime.start.p0(i64 32, ptr %7) #8
  call void @llvm.lifetime.start.p0(i64 8, ptr %8) #8
  %10 = getelementptr inbounds nuw %struct.strmap_entry, ptr %7, i32 0, i32 0
  %11 = load ptr, ptr %5, align 8, !tbaa !29
  %12 = call i32 @strhash(ptr noundef %11)
  call void @hashmap_entry_init(ptr noundef %10, i32 noundef %12)
  %13 = load ptr, ptr %5, align 8, !tbaa !29
  %14 = getelementptr inbounds nuw %struct.strmap_entry, ptr %7, i32 0, i32 1
  store ptr %13, ptr %14, align 8, !tbaa !12
  %15 = load ptr, ptr %4, align 8, !tbaa !17
  %16 = getelementptr inbounds nuw %struct.strmap, ptr %15, i32 0, i32 0
  %17 = getelementptr inbounds nuw %struct.strmap_entry, ptr %7, i32 0, i32 0
  %18 = call ptr @hashmap_remove(ptr noundef %16, ptr noundef %17, ptr noundef null)
  %19 = call ptr @container_of_or_null_offset(ptr noundef %18, i64 noundef 0)
  store ptr %19, ptr %8, align 8, !tbaa !10
  %20 = load ptr, ptr %8, align 8, !tbaa !10
  %21 = icmp ne ptr %20, null
  br i1 %21, label %23, label %22

22:                                               ; preds = %3
  store i32 1, ptr %9, align 4
  br label %38

23:                                               ; preds = %3
  %24 = load i32, ptr %6, align 4, !tbaa !21
  %25 = icmp ne i32 %24, 0
  br i1 %25, label %26, label %30

26:                                               ; preds = %23
  %27 = load ptr, ptr %8, align 8, !tbaa !10
  %28 = getelementptr inbounds nuw %struct.strmap_entry, ptr %27, i32 0, i32 2
  %29 = load ptr, ptr %28, align 8, !tbaa !26
  call void @free(ptr noundef %29) #8
  br label %30

30:                                               ; preds = %26, %23
  %31 = load ptr, ptr %4, align 8, !tbaa !17
  %32 = getelementptr inbounds nuw %struct.strmap, ptr %31, i32 0, i32 1
  %33 = load ptr, ptr %32, align 8, !tbaa !22
  %34 = icmp ne ptr %33, null
  br i1 %34, label %37, label %35

35:                                               ; preds = %30
  %36 = load ptr, ptr %8, align 8, !tbaa !10
  call void @free(ptr noundef %36) #8
  br label %37

37:                                               ; preds = %35, %30
  store i32 0, ptr %9, align 4
  br label %38

38:                                               ; preds = %37, %22
  call void @llvm.lifetime.end.p0(i64 8, ptr %8) #8
  call void @llvm.lifetime.end.p0(i64 32, ptr %7) #8
  %39 = load i32, ptr %9, align 4
  switch i32 %39, label %41 [
    i32 0, label %40
    i32 1, label %40
  ]

40:                                               ; preds = %38, %38
  ret void

41:                                               ; preds = %38
  unreachable
}