; Function Attrs: nounwind uwtable
define dso_local void @strmap_remove(ptr noundef %0, ptr noundef %1, i32 noundef %2) local_unnamed_addr #5 {
  %4 = alloca %struct.strmap_entry, align 8
  call void @llvm.lifetime.start.p0(i64 32, ptr nonnull %4) #10
  %5 = tail call i32 @strhash(ptr noundef %1) #10
  %6 = getelementptr inbounds nuw i8, ptr %4, i64 8
  store i32 %5, ptr %6, align 8, !tbaa !21
  store ptr null, ptr %4, align 8, !tbaa !22
  %7 = getelementptr inbounds nuw i8, ptr %4, i64 16
  store ptr %1, ptr %7, align 8, !tbaa !4
  %8 = call ptr @hashmap_remove(ptr noundef %0, ptr noundef nonnull %4, ptr noundef null) #10
  %.not = icmp eq ptr %8, null
  br i1 %.not, label %17, label %9

9:                                                ; preds = %3
  %.not7 = icmp eq i32 %2, 0
  br i1 %.not7, label %13, label %10

10:                                               ; preds = %9
  %11 = getelementptr inbounds nuw i8, ptr %8, i64 24
  %12 = load ptr, ptr %11, align 8, !tbaa !20
  call void @free(ptr noundef %12) #10
  br label %13

13:                                               ; preds = %10, %9
  %14 = getelementptr inbounds nuw i8, ptr %0, i64 48
  %15 = load ptr, ptr %14, align 8, !tbaa !13
  %.not8 = icmp eq ptr %15, null
  br i1 %.not8, label %16, label %17

16:                                               ; preds = %13
  call void @free(ptr noundef nonnull %8) #10
  br label %17

17:                                               ; preds = %13, %16, %3
  call void @llvm.lifetime.end.p0(i64 32, ptr nonnull %4) #10
  ret void
}